target datalayout = "e-m:e-p270:32:32-p271:32:32-p272:64:64-i64:64-i128:128-f80:128-n8:16:32:64-S128"
target triple = "x86_64-pc-linux-gnu"

%"class.llvm::SmallVectorBase" = type { ptr, i32, i32 }
%"class.clang::ento::RangeSet" = type { ptr }
%"class.clang::ento::RangeSet::Factory" = type { ptr, %"class.llvm::SpecificBumpPtrAllocator", %"class.llvm::FoldingSet" }
%"class.llvm::SpecificBumpPtrAllocator" = type { %"class.llvm::BumpPtrAllocatorImpl" }
%"class.llvm::BumpPtrAllocatorImpl" = type { ptr, ptr, %"class.llvm::SmallVector.1", %"class.llvm::SmallVector.6", i64, i64 }
%"class.llvm::SmallVector.1" = type { %"class.llvm::SmallVectorImpl.2", %"struct.llvm::SmallVectorStorage.5" }
%"class.llvm::SmallVectorImpl.2" = type { %"class.llvm::SmallVectorTemplateBase.3" }
%"class.llvm::SmallVectorTemplateBase.3" = type { %"class.llvm::SmallVectorTemplateCommon.4" }
%"class.llvm::SmallVectorTemplateCommon.4" = type { %"class.llvm::SmallVectorBase" }
%"struct.llvm::SmallVectorStorage.5" = type { [32 x i8] }
%"class.llvm::SmallVector.6" = type { %"class.llvm::SmallVectorImpl.7" }
%"class.llvm::SmallVectorImpl.7" = type { %"class.llvm::SmallVectorTemplateBase.8" }
%"class.llvm::SmallVectorTemplateBase.8" = type { %"class.llvm::SmallVectorTemplateCommon.9" }
%"class.llvm::SmallVectorTemplateCommon.9" = type { %"class.llvm::SmallVectorBase" }
%"class.llvm::FoldingSet" = type { %"class.llvm::FoldingSetImpl" }
%"class.llvm::FoldingSetImpl" = type { %"class.llvm::FoldingSetBase" }
%"class.llvm::FoldingSetBase" = type { ptr, i32, i32 }
%"class.llvm::IntrusiveRefCntPtr.106" = type { ptr }
%"class.(anonymous namespace)::RangeConstraintManager" = type { %"class.clang::ento::RangedConstraintManager", %"class.clang::ento::RangeSet::Factory" }
%"class.clang::ento::RangedConstraintManager" = type { %"class.clang::ento::SimpleConstraintManager" }
%"class.clang::ento::SimpleConstraintManager" = type { %"class.clang::ento::ConstraintManager", ptr, ptr }
%"class.clang::ento::ConstraintManager" = type { ptr, %"class.clang::ento::ConstraintManager::AssumeStackTy" }
%"class.clang::ento::ConstraintManager::AssumeStackTy" = type { %"class.llvm::SmallVector.562" }
%"class.llvm::SmallVector.562" = type { %"class.llvm::SmallVectorImpl.563", %"struct.llvm::SmallVectorStorage.566" }
%"class.llvm::SmallVectorImpl.563" = type { %"class.llvm::SmallVectorTemplateBase.564" }
%"class.llvm::SmallVectorTemplateBase.564" = type { %"class.llvm::SmallVectorTemplateCommon.565" }
%"class.llvm::SmallVectorTemplateCommon.565" = type { %"class.llvm::SmallVectorBase" }
%"struct.llvm::SmallVectorStorage.566" = type { [32 x i8] }
%"class.(anonymous namespace)::SymbolicRangeInferrer" = type { ptr, ptr, %"class.llvm::IntrusiveRefCntPtr.106" }

; Function Attrs: mustprogress nounwind uwtable
define linkonce_odr hidden void @_ZN4llvm22IntrusiveRefCntPtrInfoIKN5clang4ento12ProgramStateEE7releaseEPS4_(ptr noundef %0) #1 comdat align 2 {
  %2 = alloca ptr, align 8
  store ptr %0, ptr %2, align 8
  %3 = load ptr, ptr %2, align 8
  call void @_ZN5clang4ento19ProgramStateReleaseEPKNS0_12ProgramStateE(ptr noundef %3)
  ret void
}

; Function Attrs: mustprogress nounwind uwtable
define linkonce_odr hidden noundef nonnull align 8 dereferenceable(144) ptr @_ZNK5clang4ento8RangeSet7Factory15getValueFactoryEv(ptr noundef nonnull align 8 dereferenceable(120) %0) #1 comdat align 2 {
  %2 = alloca ptr, align 8
  store ptr %0, ptr %2, align 8
  %3 = load ptr, ptr %2, align 8
  %4 = getelementptr inbounds nuw %"class.clang::ento::RangeSet::Factory", ptr %3, i32 0, i32 0
  %5 = load ptr, ptr %4, align 8
  ret ptr %5
}

; Function Attrs: mustprogress nounwind uwtable
define linkonce_odr hidden void @_ZN4llvm22IntrusiveRefCntPtrInfoIKN5clang4ento12ProgramStateEE6retainEPS4_(ptr noundef %0) #1 comdat align 2 {
  %2 = alloca ptr, align 8
  store ptr %0, ptr %2, align 8
  %3 = load ptr, ptr %2, align 8
  call void @_ZN5clang4ento18ProgramStateRetainEPKNS0_12ProgramStateE(ptr noundef %3)
  ret void
}

; Function Attrs: mustprogress nounwind uwtable
define linkonce_odr hidden void @_ZN4llvm18IntrusiveRefCntPtrIKN5clang4ento12ProgramStateEE7releaseEv(ptr noundef nonnull align 8 dereferenceable(8) %0) #1 comdat align 2 {
  %2 = alloca ptr, align 8
  store ptr %0, ptr %2, align 8
  %3 = load ptr, ptr %2, align 8
  %4 = getelementptr inbounds nuw %"class.llvm::IntrusiveRefCntPtr.106", ptr %3, i32 0, i32 0
  %5 = load ptr, ptr %4, align 8
  %6 = icmp ne ptr %5, null
  br i1 %6, label %7, label %10

7:                                                ; preds = %1
  %8 = getelementptr inbounds nuw %"class.llvm::IntrusiveRefCntPtr.106", ptr %3, i32 0, i32 0
  %9 = load ptr, ptr %8, align 8
  call void @_ZN4llvm22IntrusiveRefCntPtrInfoIKN5clang4ento12ProgramStateEE7releaseEPS4_(ptr noundef %9)
  br label %10

10:                                               ; preds = %7, %1
  ret void
}

; Function Attrs: mustprogress nounwind uwtable
define internal void @_ZN12_GLOBAL__N_121SymbolicRangeInferrerD2Ev(ptr noundef nonnull align 8 dereferenceable(24) %0) unnamed_addr #1 align 2 {
  %2 = alloca ptr, align 8
  store ptr %0, ptr %2, align 8
  %3 = load ptr, ptr %2, align 8
  %4 = getelementptr inbounds nuw %"class.(anonymous namespace)::SymbolicRangeInferrer", ptr %3, i32 0, i32 2
  call void @_ZN4llvm18IntrusiveRefCntPtrIKN5clang4ento12ProgramStateEED2Ev(ptr noundef nonnull align 8 dereferenceable(8) %4) #3
  ret void
}

; Function Attrs: mustprogress nounwind uwtable
define internal void @_ZN12_GLOBAL__N_121SymbolicRangeInferrerC2ERN5clang4ento8RangeSet7FactoryEN4llvm18IntrusiveRefCntPtrIKNS2_12ProgramStateEEE(ptr noundef nonnull align 8 dereferenceable(24) %0, ptr noundef nonnull align 8 dereferenceable(120) %1, ptr noundef %2) unnamed_addr #1 align 2 {
  %4 = alloca ptr, align 8
  %5 = alloca ptr, align 8
  %6 = alloca ptr, align 8
  store ptr %0, ptr %4, align 8
  store ptr %1, ptr %5, align 8
  store ptr %2, ptr %6, align 8
  %7 = load ptr, ptr %4, align 8
  %8 = getelementptr inbounds nuw %"class.(anonymous namespace)::SymbolicRangeInferrer", ptr %7, i32 0, i32 0
  %9 = load ptr, ptr %5, align 8
  %10 = call noundef nonnull align 8 dereferenceable(144) ptr @_ZNK5clang4ento8RangeSet7Factory15getValueFactoryEv(ptr noundef nonnull align 8 dereferenceable(120) %9)
  store ptr %10, ptr %8, align 8
  %11 = getelementptr inbounds nuw %"class.(anonymous namespace)::SymbolicRangeInferrer", ptr %7, i32 0, i32 1
  %12 = load ptr, ptr %5, align 8
  store ptr %12, ptr %11, align 8
  %13 = getelementptr inbounds nuw %"class.(anonymous namespace)::SymbolicRangeInferrer", ptr %7, i32 0, i32 2
  call void @_ZN4llvm18IntrusiveRefCntPtrIKN5clang4ento12ProgramStateEEC2ERKS5_(ptr noundef nonnull align 8 dereferenceable(8) %13, ptr noundef nonnull align 8 dereferenceable(8) %2)
  ret void
}

; Function Attrs: mustprogress nounwind uwtable
define linkonce_odr hidden void @_ZN4llvm18IntrusiveRefCntPtrIKN5clang4ento12ProgramStateEE6retainEv(ptr noundef nonnull align 8 dereferenceable(8) %0) #1 comdat align 2 {
  %2 = alloca ptr, align 8
  store ptr %0, ptr %2, align 8
  %3 = load ptr, ptr %2, align 8
  %4 = getelementptr inbounds nuw %"class.llvm::IntrusiveRefCntPtr.106", ptr %3, i32 0, i32 0
  %5 = load ptr, ptr %4, align 8
  %6 = icmp ne ptr %5, null
  br i1 %6, label %7, label %10

7:                                                ; preds = %1
  %8 = getelementptr inbounds nuw %"class.llvm::IntrusiveRefCntPtr.106", ptr %3, i32 0, i32 0
  %9 = load ptr, ptr %8, align 8
  call void @_ZN4llvm22IntrusiveRefCntPtrInfoIKN5clang4ento12ProgramStateEE6retainEPS4_(ptr noundef %9)
  br label %10

10:                                               ; preds = %7, %1
  ret void
}

; Function Attrs: mustprogress nounwind uwtable
define linkonce_odr hidden void @_ZN4llvm18IntrusiveRefCntPtrIKN5clang4ento12ProgramStateEED2Ev(ptr noundef nonnull align 8 dereferenceable(8) %0) unnamed_addr #1 comdat align 2 {
  %2 = alloca ptr, align 8
  store ptr %0, ptr %2, align 8
  %3 = load ptr, ptr %2, align 8
  call void @_ZN4llvm18IntrusiveRefCntPtrIKN5clang4ento12ProgramStateEE7releaseEv(ptr noundef nonnull align 8 dereferenceable(8) %3)
  ret void
}

; Function Attrs: mustprogress nounwind uwtable
define internal ptr @_ZN12_GLOBAL__N_121SymbolicRangeInferrer10inferRangeIPKN5clang4ento7SymExprEEENS3_8RangeSetERNS7_7FactoryEN4llvm18IntrusiveRefCntPtrIKNS3_12ProgramStateEEET_(ptr noundef nonnull align 8 dereferenceable(120) %0, ptr noundef %1, ptr noundef %2) #1 align 2 {
  %4 = alloca %"class.clang::ento::RangeSet", align 8
  %5 = alloca ptr, align 8
  %6 = alloca ptr, align 8
  %7 = alloca ptr, align 8
  %8 = alloca %"class.(anonymous namespace)::SymbolicRangeInferrer", align 8
  %9 = alloca %"class.llvm::IntrusiveRefCntPtr.106", align 8
  store ptr %0, ptr %5, align 8
  store ptr %1, ptr %6, align 8
  store ptr %2, ptr %7, align 8
  %10 = load ptr, ptr %5, align 8
  call void @_ZN4llvm18IntrusiveRefCntPtrIKN5clang4ento12ProgramStateEEC2ERKS5_(ptr noundef nonnull align 8 dereferenceable(8) %9, ptr noundef nonnull align 8 dereferenceable(8) %1)
  call void @_ZN12_GLOBAL__N_121SymbolicRangeInferrerC2ERN5clang4ento8RangeSet7FactoryEN4llvm18IntrusiveRefCntPtrIKNS2_12ProgramStateEEE(ptr noundef nonnull align 8 dereferenceable(24) %8, ptr noundef nonnull align 8 dereferenceable(120) %10, ptr noundef %9)
  call void @_ZN4llvm18IntrusiveRefCntPtrIKN5clang4ento12ProgramStateEED2Ev(ptr noundef nonnull align 8 dereferenceable(8) %9) #3
  %11 = load ptr, ptr %7, align 8
  %12 = call ptr @_ZN12_GLOBAL__N_121SymbolicRangeInferrer5inferEPKN5clang4ento7SymExprE(ptr noundef nonnull align 8 dereferenceable(24) %8, ptr noundef %11)
  %13 = getelementptr inbounds nuw %"class.clang::ento::RangeSet", ptr %4, i32 0, i32 0
  store ptr %12, ptr %13, align 8
  call void @_ZN12_GLOBAL__N_121SymbolicRangeInferrerD2Ev(ptr noundef nonnull align 8 dereferenceable(24) %8) #3
  %14 = getelementptr inbounds nuw %"class.clang::ento::RangeSet", ptr %4, i32 0, i32 0
  %15 = load ptr, ptr %14, align 8
  ret ptr %15
}

; Function Attrs: mustprogress nounwind uwtable
define linkonce_odr hidden void @_ZN4llvm18IntrusiveRefCntPtrIKN5clang4ento12ProgramStateEEC2ERKS5_(ptr noundef nonnull align 8 dereferenceable(8) %0, ptr noundef nonnull align 8 dereferenceable(8) %1) unnamed_addr #1 comdat align 2 {
  %3 = alloca ptr, align 8
  %4 = alloca ptr, align 8
  store ptr %0, ptr %3, align 8
  store ptr %1, ptr %4, align 8
  %5 = load ptr, ptr %3, align 8
  %6 = getelementptr inbounds nuw %"class.llvm::IntrusiveRefCntPtr.106", ptr %5, i32 0, i32 0
  %7 = load ptr, ptr %4, align 8
  %8 = getelementptr inbounds nuw %"class.llvm::IntrusiveRefCntPtr.106", ptr %7, i32 0, i32 0
  %9 = load ptr, ptr %8, align 8
  store ptr %9, ptr %6, align 8
  call void @_ZN4llvm18IntrusiveRefCntPtrIKN5clang4ento12ProgramStateEE6retainEv(ptr noundef nonnull align 8 dereferenceable(8) %5)
  ret void
}

; Function Attrs: mustprogress nounwind uwtable
define internal ptr @_ZN12_GLOBAL__N_122RangeConstraintManager8getRangeEN4llvm18IntrusiveRefCntPtrIKN5clang4ento12ProgramStateEEEPKNS4_7SymExprE(ptr noundef nonnull align 8 dereferenceable(192) %0, ptr noundef %1, ptr noundef %2) #1 align 2 {
  %4 = alloca %"class.clang::ento::RangeSet", align 8
  %5 = alloca ptr, align 8
  %6 = alloca ptr, align 8
  %7 = alloca ptr, align 8
  %8 = alloca %"class.llvm::IntrusiveRefCntPtr.106", align 8
  store ptr %0, ptr %5, align 8
  store ptr %1, ptr %6, align 8
  store ptr %2, ptr %7, align 8
  %9 = load ptr, ptr %5, align 8
  %10 = getelementptr inbounds nuw %"class.(anonymous namespace)::RangeConstraintManager", ptr %9, i32 0, i32 1
  call void @_ZN4llvm18IntrusiveRefCntPtrIKN5clang4ento12ProgramStateEEC2ERKS5_(ptr noundef nonnull align 8 dereferenceable(8) %8, ptr noundef nonnull align 8 dereferenceable(8) %1)
  %11 = load ptr, ptr %7, align 8
  %12 = call ptr @_ZN12_GLOBAL__N_121SymbolicRangeInferrer10inferRangeIPKN5clang4ento7SymExprEEENS3_8RangeSetERNS7_7FactoryEN4llvm18IntrusiveRefCntPtrIKNS3_12ProgramStateEEET_(ptr noundef nonnull align 8 dereferenceable(120) %10, ptr noundef %8, ptr noundef %11)
  %13 = getelementptr inbounds nuw %"class.clang::ento::RangeSet", ptr %4, i32 0, i32 0
  store ptr %12, ptr %13, align 8
  call void @_ZN4llvm18IntrusiveRefCntPtrIKN5clang4ento12ProgramStateEED2Ev(ptr noundef nonnull align 8 dereferenceable(8) %8) #3
  %14 = getelementptr inbounds nuw %"class.clang::ento::RangeSet", ptr %4, i32 0, i32 0
  %15 = load ptr, ptr %14, align 8
  ret ptr %15
}