; Function Attrs: mustprogress nounwind uwtable
define internal fastcc ptr @_ZN12_GLOBAL__N_122RangeConstraintManager8getRangeEN4llvm18IntrusiveRefCntPtrIKN5clang4ento12ProgramStateEEEPKNS4_7SymExprE(ptr noundef nonnull align 8 dereferenceable(192) %0, ptr %.0.val, ptr noundef %1) unnamed_addr #1 align 2 {
  %3 = alloca %"class.(anonymous namespace)::SymbolicRangeInferrer", align 8
  %4 = getelementptr inbounds nuw i8, ptr %0, i64 72
  %.not.i.i = icmp eq ptr %.0.val, null
  br i1 %.not.i.i, label %_ZN12_GLOBAL__N_121SymbolicRangeInferrer10inferRangeIPKN5clang4ento7SymExprEEENS3_8RangeSetERNS7_7FactoryEN4llvm18IntrusiveRefCntPtrIKNS3_12ProgramStateEEET_.exit.thread, label %9

_ZN12_GLOBAL__N_121SymbolicRangeInferrer10inferRangeIPKN5clang4ento7SymExprEEENS3_8RangeSetERNS7_7FactoryEN4llvm18IntrusiveRefCntPtrIKNS3_12ProgramStateEEET_.exit.thread: ; preds = %2
  call void @llvm.lifetime.start.p0(i64 24, ptr nonnull %3)
  %5 = load ptr, ptr %4, align 8
  store ptr %5, ptr %3, align 8
  %6 = getelementptr inbounds nuw i8, ptr %3, i64 8
  store ptr %4, ptr %6, align 8
  %7 = getelementptr inbounds nuw i8, ptr %3, i64 16
  store ptr null, ptr %7, align 8
  %8 = call fastcc ptr @_ZN12_GLOBAL__N_121SymbolicRangeInferrer5inferEPKN5clang4ento7SymExprE(ptr noundef nonnull align 8 dereferenceable(24) %3, ptr noundef %1)
  call void @llvm.lifetime.end.p0(i64 24, ptr nonnull %3)
  br label %_ZN4llvm18IntrusiveRefCntPtrIKN5clang4ento12ProgramStateEED2Ev.exit

9:                                                ; preds = %2
  tail call void @_ZN5clang4ento18ProgramStateRetainEPKNS0_12ProgramStateE(ptr noundef nonnull %.0.val) #22
  call void @llvm.lifetime.start.p0(i64 24, ptr nonnull %3)
  tail call void @_ZN5clang4ento18ProgramStateRetainEPKNS0_12ProgramStateE(ptr noundef nonnull %.0.val) #22
  %10 = load ptr, ptr %4, align 8
  store ptr %10, ptr %3, align 8
  %11 = getelementptr inbounds nuw i8, ptr %3, i64 8
  store ptr %4, ptr %11, align 8
  %12 = getelementptr inbounds nuw i8, ptr %3, i64 16
  store ptr %.0.val, ptr %12, align 8
  tail call void @_ZN5clang4ento18ProgramStateRetainEPKNS0_12ProgramStateE(ptr noundef nonnull %.0.val) #22
  tail call void @_ZN5clang4ento19ProgramStateReleaseEPKNS0_12ProgramStateE(ptr noundef nonnull %.0.val) #22
  %13 = call fastcc ptr @_ZN12_GLOBAL__N_121SymbolicRangeInferrer5inferEPKN5clang4ento7SymExprE(ptr noundef nonnull align 8 dereferenceable(24) %3, ptr noundef %1)
  tail call void @_ZN5clang4ento19ProgramStateReleaseEPKNS0_12ProgramStateE(ptr noundef nonnull %.0.val) #22
  call void @llvm.lifetime.end.p0(i64 24, ptr nonnull %3)
  tail call void @_ZN5clang4ento19ProgramStateReleaseEPKNS0_12ProgramStateE(ptr noundef nonnull %.0.val) #22
  br label %_ZN4llvm18IntrusiveRefCntPtrIKN5clang4ento12ProgramStateEED2Ev.exit

_ZN4llvm18IntrusiveRefCntPtrIKN5clang4ento12ProgramStateEED2Ev.exit: ; preds = %_ZN12_GLOBAL__N_121SymbolicRangeInferrer10inferRangeIPKN5clang4ento7SymExprEEENS3_8RangeSetERNS7_7FactoryEN4llvm18IntrusiveRefCntPtrIKNS3_12ProgramStateEEET_.exit.thread, %9
  %14 = phi ptr [ %8, %_ZN12_GLOBAL__N_121SymbolicRangeInferrer10inferRangeIPKN5clang4ento7SymExprEEENS3_8RangeSetERNS7_7FactoryEN4llvm18IntrusiveRefCntPtrIKNS3_12ProgramStateEEET_.exit.thread ], [ %13, %9 ]
  ret ptr %14
}